target datalayout = "e-m:e-p270:32:32-p271:32:32-p272:64:64-i64:64-i128:128-f80:128-n8:16:32:64-S128"
target triple = "x86_64-pc-linux-gnu"

@.str.302 = private unnamed_addr constant [7 x i8] c"Plan 9\00", align 1
@.str.303 = private unnamed_addr constant [3 x i8] c"9P\00", align 1
@.str.304 = private unnamed_addr constant [3 x i8] c"9p\00", align 1
@proto_9P = internal global i32 0, align 4
@_9p_hashtable = internal global ptr null, align 8
@ninep_handle = internal global ptr null, align 8

; Function Attrs: null_pointer_is_valid sspstrong uwtable
define hidden void @proto_register_9P() #0 {
  %1 = alloca ptr, align 8
  call void @llvm.lifetime.start.p0(i64 8, ptr %1) #7
  %2 = call i32 @proto_register_protocol(ptr noundef @.str.302, ptr noundef @.str.303, ptr noundef @.str.304)
  store i32 %2, ptr @proto_9P, align 4
  %3 = load i32, ptr @proto_9P, align 4
  call void @proto_register_field_array(i32 noundef %3, ptr noundef @proto_register_9P.hf, i32 noundef 135)
  call void @proto_register_subtree_array(ptr noundef @proto_register_9P.ett, i32 noundef 17)
  %4 = load i32, ptr @proto_9P, align 4
  %5 = call ptr @expert_register_protocol(i32 noundef %4)
  store ptr %5, ptr %1, align 8
  %6 = load ptr, ptr %1, align 8
  call void @expert_register_field_array(ptr noundef %6, ptr noundef @proto_register_9P.ei, i32 noundef 2)
  %7 = call ptr @wmem_epan_scope()
  %8 = call ptr @wmem_file_scope()
  %9 = call noalias ptr @wmem_map_new_autoreset(ptr noundef %7, ptr noundef %8, ptr noundef @_9p_hash_hash, ptr noundef @_9p_hash_equal)
  store ptr %9, ptr @_9p_hashtable, align 8
  %10 = load i32, ptr @proto_9P, align 4
  %11 = call ptr @register_dissector(ptr noundef @.str.304, ptr noundef @dissect_9P, i32 noundef %10)
  store ptr %11, ptr @ninep_handle, align 8
  call void @llvm.lifetime.end.p0(i64 8, ptr %1) #7
  ret void
}