; Function Attrs: null_pointer_is_valid sspstrong uwtable
define hidden void @proto_register_9P() local_unnamed_addr #0 {
  %1 = tail call i32 @proto_register_protocol(ptr noundef nonnull @.str.302, ptr noundef nonnull @.str.303, ptr noundef nonnull @.str.304)
  store i32 %1, ptr @proto_9P, align 4
  tail call void @proto_register_field_array(i32 noundef %1, ptr noundef nonnull @proto_register_9P.hf, i32 noundef 135)
  tail call void @proto_register_subtree_array(ptr noundef nonnull @proto_register_9P.ett, i32 noundef 17)
  %2 = load i32, ptr @proto_9P, align 4
  %3 = tail call ptr @expert_register_protocol(i32 noundef %2)
  tail call void @expert_register_field_array(ptr noundef %3, ptr noundef nonnull @proto_register_9P.ei, i32 noundef 2)
  %4 = tail call ptr @wmem_epan_scope()
  %5 = tail call ptr @wmem_file_scope()
  %6 = tail call noalias ptr @wmem_map_new_autoreset(ptr noundef %4, ptr noundef %5, ptr noundef nonnull @_9p_hash_hash, ptr noundef nonnull @_9p_hash_equal)
  store ptr %6, ptr @_9p_hashtable, align 8
  %7 = load i32, ptr @proto_9P, align 4
  %8 = tail call ptr @register_dissector(ptr noundef nonnull @.str.304, ptr noundef nonnull @dissect_9P, i32 noundef %7)
  store ptr %8, ptr @ninep_handle, align 8
  ret void
}